(lp0
S'poi'
p1
aS'bonus'
p2
aS'exercised_stock_options'
p3
aS'expenses'
p4
aS'from_messages'
p5
aS'from_poi_to_this_person'
p6
aS'from_this_person_to_poi'
p7
aS'other'
p8
aS'restricted_stock'
p9
aS'salary'
p10
aS'shared_receipt_with_poi'
p11
aS'to_messages'
p12
a.